target datalayout = "e-m:e-p270:32:32-p271:32:32-p272:64:64-i64:64-i128:128-f80:128-n8:16:32:64-S128"
target triple = "x86_64-pc-linux-gnu"

; Function Attrs: alwaysinline nounwind willreturn memory(none) uwtable
define internal i32 @av_clip_uintp2_c(i32 noundef %0, i32 noundef %1) #4 {
  %3 = alloca i32, align 4
  %4 = alloca i32, align 4
  %5 = alloca i32, align 4
  store i32 %0, ptr %4, align 4, !tbaa !18
  store i32 %1, ptr %5, align 4, !tbaa !18
  %6 = load i32, ptr %4, align 4, !tbaa !18
  %7 = load i32, ptr %5, align 4, !tbaa !18
  %8 = shl i32 1, %7
  %9 = sub i32 %8, 1
  %10 = xor i32 %9, -1
  %11 = and i32 %6, %10
  %12 = icmp ne i32 %11, 0
  br i1 %12, label %13, label %21

13:                                               ; preds = %2
  %14 = load i32, ptr %4, align 4, !tbaa !18
  %15 = xor i32 %14, -1
  %16 = ashr i32 %15, 31
  %17 = load i32, ptr %5, align 4, !tbaa !18
  %18 = shl i32 1, %17
  %19 = sub i32 %18, 1
  %20 = and i32 %16, %19
  store i32 %20, ptr %3, align 4
  br label %23

21:                                               ; preds = %2
  %22 = load i32, ptr %4, align 4, !tbaa !18
  store i32 %22, ptr %3, align 4
  br label %23

23:                                               ; preds = %21, %13
  %24 = load i32, ptr %3, align 4
  ret i32 %24
}

; Function Attrs: nounwind uwtable
define internal void @tm_16x16_c(ptr noundef %0, i64 noundef %1, ptr noundef %2, ptr noundef %3) #2 {
  %5 = alloca ptr, align 8
  %6 = alloca i64, align 8
  %7 = alloca ptr, align 8
  %8 = alloca ptr, align 8
  %9 = alloca ptr, align 8
  %10 = alloca ptr, align 8
  %11 = alloca ptr, align 8
  %12 = alloca i32, align 4
  %13 = alloca i32, align 4
  %14 = alloca i32, align 4
  store ptr %0, ptr %5, align 8, !tbaa !10
  store i64 %1, ptr %6, align 8, !tbaa !12
  store ptr %2, ptr %7, align 8, !tbaa !10
  store ptr %3, ptr %8, align 8, !tbaa !10
  call void @llvm.lifetime.start.p0(i64 8, ptr %9) #9
  %15 = load ptr, ptr %5, align 8, !tbaa !10
  store ptr %15, ptr %9, align 8, !tbaa !14
  call void @llvm.lifetime.start.p0(i64 8, ptr %10) #9
  %16 = load ptr, ptr %7, align 8, !tbaa !10
  store ptr %16, ptr %10, align 8, !tbaa !14
  call void @llvm.lifetime.start.p0(i64 8, ptr %11) #9
  %17 = load ptr, ptr %8, align 8, !tbaa !10
  store ptr %17, ptr %11, align 8, !tbaa !14
  call void @llvm.lifetime.start.p0(i64 4, ptr %12) #9
  call void @llvm.lifetime.start.p0(i64 4, ptr %13) #9
  %18 = load ptr, ptr %11, align 8, !tbaa !14
  %19 = getelementptr inbounds i16, ptr %18, i64 -1
  %20 = load i16, ptr %19, align 2, !tbaa !16
  %21 = zext i16 %20 to i32
  store i32 %21, ptr %13, align 4, !tbaa !18
  %22 = load i64, ptr %6, align 8, !tbaa !12
  %23 = udiv i64 %22, 2
  store i64 %23, ptr %6, align 8, !tbaa !12
  store i32 0, ptr %12, align 4, !tbaa !18
  br label %24

24:                                               ; preds = %200, %4
  %25 = load i32, ptr %12, align 4, !tbaa !18
  %26 = icmp slt i32 %25, 16
  br i1 %26, label %27, label %203

27:                                               ; preds = %24
  call void @llvm.lifetime.start.p0(i64 4, ptr %14) #9
  %28 = load ptr, ptr %10, align 8, !tbaa !14
  %29 = load i32, ptr %12, align 4, !tbaa !18
  %30 = sub nsw i32 15, %29
  %31 = sext i32 %30 to i64
  %32 = getelementptr inbounds i16, ptr %28, i64 %31
  %33 = load i16, ptr %32, align 2, !tbaa !16
  %34 = zext i16 %33 to i32
  %35 = load i32, ptr %13, align 4, !tbaa !18
  %36 = sub nsw i32 %34, %35
  store i32 %36, ptr %14, align 4, !tbaa !18
  %37 = load ptr, ptr %11, align 8, !tbaa !14
  %38 = getelementptr inbounds i16, ptr %37, i64 0
  %39 = load i16, ptr %38, align 2, !tbaa !16
  %40 = zext i16 %39 to i32
  %41 = load i32, ptr %14, align 4, !tbaa !18
  %42 = add nsw i32 %40, %41
  %43 = call i32 @av_clip_uintp2_c(i32 noundef %42, i32 noundef 12) #10
  %44 = trunc i32 %43 to i16
  %45 = load ptr, ptr %9, align 8, !tbaa !14
  %46 = getelementptr inbounds i16, ptr %45, i64 0
  store i16 %44, ptr %46, align 2, !tbaa !16
  %47 = load ptr, ptr %11, align 8, !tbaa !14
  %48 = getelementptr inbounds i16, ptr %47, i64 1
  %49 = load i16, ptr %48, align 2, !tbaa !16
  %50 = zext i16 %49 to i32
  %51 = load i32, ptr %14, align 4, !tbaa !18
  %52 = add nsw i32 %50, %51
  %53 = call i32 @av_clip_uintp2_c(i32 noundef %52, i32 noundef 12) #10
  %54 = trunc i32 %53 to i16
  %55 = load ptr, ptr %9, align 8, !tbaa !14
  %56 = getelementptr inbounds i16, ptr %55, i64 1
  store i16 %54, ptr %56, align 2, !tbaa !16
  %57 = load ptr, ptr %11, align 8, !tbaa !14
  %58 = getelementptr inbounds i16, ptr %57, i64 2
  %59 = load i16, ptr %58, align 2, !tbaa !16
  %60 = zext i16 %59 to i32
  %61 = load i32, ptr %14, align 4, !tbaa !18
  %62 = add nsw i32 %60, %61
  %63 = call i32 @av_clip_uintp2_c(i32 noundef %62, i32 noundef 12) #10
  %64 = trunc i32 %63 to i16
  %65 = load ptr, ptr %9, align 8, !tbaa !14
  %66 = getelementptr inbounds i16, ptr %65, i64 2
  store i16 %64, ptr %66, align 2, !tbaa !16
  %67 = load ptr, ptr %11, align 8, !tbaa !14
  %68 = getelementptr inbounds i16, ptr %67, i64 3
  %69 = load i16, ptr %68, align 2, !tbaa !16
  %70 = zext i16 %69 to i32
  %71 = load i32, ptr %14, align 4, !tbaa !18
  %72 = add nsw i32 %70, %71
  %73 = call i32 @av_clip_uintp2_c(i32 noundef %72, i32 noundef 12) #10
  %74 = trunc i32 %73 to i16
  %75 = load ptr, ptr %9, align 8, !tbaa !14
  %76 = getelementptr inbounds i16, ptr %75, i64 3
  store i16 %74, ptr %76, align 2, !tbaa !16
  %77 = load ptr, ptr %11, align 8, !tbaa !14
  %78 = getelementptr inbounds i16, ptr %77, i64 4
  %79 = load i16, ptr %78, align 2, !tbaa !16
  %80 = zext i16 %79 to i32
  %81 = load i32, ptr %14, align 4, !tbaa !18
  %82 = add nsw i32 %80, %81
  %83 = call i32 @av_clip_uintp2_c(i32 noundef %82, i32 noundef 12) #10
  %84 = trunc i32 %83 to i16
  %85 = load ptr, ptr %9, align 8, !tbaa !14
  %86 = getelementptr inbounds i16, ptr %85, i64 4
  store i16 %84, ptr %86, align 2, !tbaa !16
  %87 = load ptr, ptr %11, align 8, !tbaa !14
  %88 = getelementptr inbounds i16, ptr %87, i64 5
  %89 = load i16, ptr %88, align 2, !tbaa !16
  %90 = zext i16 %89 to i32
  %91 = load i32, ptr %14, align 4, !tbaa !18
  %92 = add nsw i32 %90, %91
  %93 = call i32 @av_clip_uintp2_c(i32 noundef %92, i32 noundef 12) #10
  %94 = trunc i32 %93 to i16
  %95 = load ptr, ptr %9, align 8, !tbaa !14
  %96 = getelementptr inbounds i16, ptr %95, i64 5
  store i16 %94, ptr %96, align 2, !tbaa !16
  %97 = load ptr, ptr %11, align 8, !tbaa !14
  %98 = getelementptr inbounds i16, ptr %97, i64 6
  %99 = load i16, ptr %98, align 2, !tbaa !16
  %100 = zext i16 %99 to i32
  %101 = load i32, ptr %14, align 4, !tbaa !18
  %102 = add nsw i32 %100, %101
  %103 = call i32 @av_clip_uintp2_c(i32 noundef %102, i32 noundef 12) #10
  %104 = trunc i32 %103 to i16
  %105 = load ptr, ptr %9, align 8, !tbaa !14
  %106 = getelementptr inbounds i16, ptr %105, i64 6
  store i16 %104, ptr %106, align 2, !tbaa !16
  %107 = load ptr, ptr %11, align 8, !tbaa !14
  %108 = getelementptr inbounds i16, ptr %107, i64 7
  %109 = load i16, ptr %108, align 2, !tbaa !16
  %110 = zext i16 %109 to i32
  %111 = load i32, ptr %14, align 4, !tbaa !18
  %112 = add nsw i32 %110, %111
  %113 = call i32 @av_clip_uintp2_c(i32 noundef %112, i32 noundef 12) #10
  %114 = trunc i32 %113 to i16
  %115 = load ptr, ptr %9, align 8, !tbaa !14
  %116 = getelementptr inbounds i16, ptr %115, i64 7
  store i16 %114, ptr %116, align 2, !tbaa !16
  %117 = load ptr, ptr %11, align 8, !tbaa !14
  %118 = getelementptr inbounds i16, ptr %117, i64 8
  %119 = load i16, ptr %118, align 2, !tbaa !16
  %120 = zext i16 %119 to i32
  %121 = load i32, ptr %14, align 4, !tbaa !18
  %122 = add nsw i32 %120, %121
  %123 = call i32 @av_clip_uintp2_c(i32 noundef %122, i32 noundef 12) #10
  %124 = trunc i32 %123 to i16
  %125 = load ptr, ptr %9, align 8, !tbaa !14
  %126 = getelementptr inbounds i16, ptr %125, i64 8
  store i16 %124, ptr %126, align 2, !tbaa !16
  %127 = load ptr, ptr %11, align 8, !tbaa !14
  %128 = getelementptr inbounds i16, ptr %127, i64 9
  %129 = load i16, ptr %128, align 2, !tbaa !16
  %130 = zext i16 %129 to i32
  %131 = load i32, ptr %14, align 4, !tbaa !18
  %132 = add nsw i32 %130, %131
  %133 = call i32 @av_clip_uintp2_c(i32 noundef %132, i32 noundef 12) #10
  %134 = trunc i32 %133 to i16
  %135 = load ptr, ptr %9, align 8, !tbaa !14
  %136 = getelementptr inbounds i16, ptr %135, i64 9
  store i16 %134, ptr %136, align 2, !tbaa !16
  %137 = load ptr, ptr %11, align 8, !tbaa !14
  %138 = getelementptr inbounds i16, ptr %137, i64 10
  %139 = load i16, ptr %138, align 2, !tbaa !16
  %140 = zext i16 %139 to i32
  %141 = load i32, ptr %14, align 4, !tbaa !18
  %142 = add nsw i32 %140, %141
  %143 = call i32 @av_clip_uintp2_c(i32 noundef %142, i32 noundef 12) #10
  %144 = trunc i32 %143 to i16
  %145 = load ptr, ptr %9, align 8, !tbaa !14
  %146 = getelementptr inbounds i16, ptr %145, i64 10
  store i16 %144, ptr %146, align 2, !tbaa !16
  %147 = load ptr, ptr %11, align 8, !tbaa !14
  %148 = getelementptr inbounds i16, ptr %147, i64 11
  %149 = load i16, ptr %148, align 2, !tbaa !16
  %150 = zext i16 %149 to i32
  %151 = load i32, ptr %14, align 4, !tbaa !18
  %152 = add nsw i32 %150, %151
  %153 = call i32 @av_clip_uintp2_c(i32 noundef %152, i32 noundef 12) #10
  %154 = trunc i32 %153 to i16
  %155 = load ptr, ptr %9, align 8, !tbaa !14
  %156 = getelementptr inbounds i16, ptr %155, i64 11
  store i16 %154, ptr %156, align 2, !tbaa !16
  %157 = load ptr, ptr %11, align 8, !tbaa !14
  %158 = getelementptr inbounds i16, ptr %157, i64 12
  %159 = load i16, ptr %158, align 2, !tbaa !16
  %160 = zext i16 %159 to i32
  %161 = load i32, ptr %14, align 4, !tbaa !18
  %162 = add nsw i32 %160, %161
  %163 = call i32 @av_clip_uintp2_c(i32 noundef %162, i32 noundef 12) #10
  %164 = trunc i32 %163 to i16
  %165 = load ptr, ptr %9, align 8, !tbaa !14
  %166 = getelementptr inbounds i16, ptr %165, i64 12
  store i16 %164, ptr %166, align 2, !tbaa !16
  %167 = load ptr, ptr %11, align 8, !tbaa !14
  %168 = getelementptr inbounds i16, ptr %167, i64 13
  %169 = load i16, ptr %168, align 2, !tbaa !16
  %170 = zext i16 %169 to i32
  %171 = load i32, ptr %14, align 4, !tbaa !18
  %172 = add nsw i32 %170, %171
  %173 = call i32 @av_clip_uintp2_c(i32 noundef %172, i32 noundef 12) #10
  %174 = trunc i32 %173 to i16
  %175 = load ptr, ptr %9, align 8, !tbaa !14
  %176 = getelementptr inbounds i16, ptr %175, i64 13
  store i16 %174, ptr %176, align 2, !tbaa !16
  %177 = load ptr, ptr %11, align 8, !tbaa !14
  %178 = getelementptr inbounds i16, ptr %177, i64 14
  %179 = load i16, ptr %178, align 2, !tbaa !16
  %180 = zext i16 %179 to i32
  %181 = load i32, ptr %14, align 4, !tbaa !18
  %182 = add nsw i32 %180, %181
  %183 = call i32 @av_clip_uintp2_c(i32 noundef %182, i32 noundef 12) #10
  %184 = trunc i32 %183 to i16
  %185 = load ptr, ptr %9, align 8, !tbaa !14
  %186 = getelementptr inbounds i16, ptr %185, i64 14
  store i16 %184, ptr %186, align 2, !tbaa !16
  %187 = load ptr, ptr %11, align 8, !tbaa !14
  %188 = getelementptr inbounds i16, ptr %187, i64 15
  %189 = load i16, ptr %188, align 2, !tbaa !16
  %190 = zext i16 %189 to i32
  %191 = load i32, ptr %14, align 4, !tbaa !18
  %192 = add nsw i32 %190, %191
  %193 = call i32 @av_clip_uintp2_c(i32 noundef %192, i32 noundef 12) #10
  %194 = trunc i32 %193 to i16
  %195 = load ptr, ptr %9, align 8, !tbaa !14
  %196 = getelementptr inbounds i16, ptr %195, i64 15
  store i16 %194, ptr %196, align 2, !tbaa !16
  %197 = load i64, ptr %6, align 8, !tbaa !12
  %198 = load ptr, ptr %9, align 8, !tbaa !14
  %199 = getelementptr inbounds i16, ptr %198, i64 %197
  store ptr %199, ptr %9, align 8, !tbaa !14
  call void @llvm.lifetime.end.p0(i64 4, ptr %14) #9
  br label %200

200:                                              ; preds = %27
  %201 = load i32, ptr %12, align 4, !tbaa !18
  %202 = add nsw i32 %201, 1
  store i32 %202, ptr %12, align 4, !tbaa !18
  br label %24, !llvm.loop !27

203:                                              ; preds = %24
  call void @llvm.lifetime.end.p0(i64 4, ptr %13) #9
  call void @llvm.lifetime.end.p0(i64 4, ptr %12) #9
  call void @llvm.lifetime.end.p0(i64 8, ptr %11) #9
  call void @llvm.lifetime.end.p0(i64 8, ptr %10) #9
  call void @llvm.lifetime.end.p0(i64 8, ptr %9) #9
  ret void
}