; Function Attrs: nofree norecurse nosync nounwind memory(argmem: readwrite) uwtable
define internal void @tm_16x16_c(ptr noundef writeonly captures(none) %0, i64 noundef %1, ptr noundef readonly captures(none) %2, ptr noundef readonly captures(none) %3) #3 {
  %5 = getelementptr inbounds i8, ptr %3, i64 -2
  %6 = load i16, ptr %5, align 2, !tbaa !8
  %7 = zext i16 %6 to i32
  %8 = lshr i64 %1, 1
  %9 = getelementptr inbounds nuw i8, ptr %3, i64 2
  %10 = getelementptr inbounds nuw i8, ptr %3, i64 4
  %11 = getelementptr inbounds nuw i8, ptr %3, i64 6
  %12 = getelementptr inbounds nuw i8, ptr %3, i64 8
  %13 = getelementptr inbounds nuw i8, ptr %3, i64 10
  %14 = getelementptr inbounds nuw i8, ptr %3, i64 12
  %15 = getelementptr inbounds nuw i8, ptr %3, i64 14
  %16 = getelementptr inbounds nuw i8, ptr %3, i64 16
  %17 = getelementptr inbounds nuw i8, ptr %3, i64 18
  %18 = getelementptr inbounds nuw i8, ptr %3, i64 20
  %19 = getelementptr inbounds nuw i8, ptr %3, i64 22
  %20 = getelementptr inbounds nuw i8, ptr %3, i64 24
  %21 = getelementptr inbounds nuw i8, ptr %3, i64 26
  %22 = getelementptr inbounds nuw i8, ptr %3, i64 28
  %23 = getelementptr inbounds nuw i8, ptr %3, i64 30
  br label %24

24:                                               ; preds = %4, %24
  %indvars.iv = phi i64 [ 0, %4 ], [ %indvars.iv.next, %24 ]
  %.0106 = phi ptr [ %0, %4 ], [ %141, %24 ]
  %25 = sub nuw nsw i64 15, %indvars.iv
  %26 = getelementptr inbounds nuw i16, ptr %2, i64 %25
  %27 = load i16, ptr %26, align 2, !tbaa !8
  %28 = zext i16 %27 to i32
  %29 = sub nsw i32 %28, %7
  %30 = load i16, ptr %3, align 2, !tbaa !8
  %31 = zext i16 %30 to i32
  %32 = add nsw i32 %29, %31
  %33 = tail call i32 @llvm.smax.i32(i32 %32, i32 0)
  %34 = tail call i32 @llvm.umin.i32(i32 %33, i32 4095)
  %35 = trunc nuw nsw i32 %34 to i16
  store i16 %35, ptr %.0106, align 2, !tbaa !8
  %36 = load i16, ptr %9, align 2, !tbaa !8
  %37 = zext i16 %36 to i32
  %38 = add nsw i32 %29, %37
  %39 = tail call i32 @llvm.smax.i32(i32 %38, i32 0)
  %40 = tail call i32 @llvm.umin.i32(i32 %39, i32 4095)
  %41 = trunc nuw nsw i32 %40 to i16
  %42 = getelementptr inbounds nuw i8, ptr %.0106, i64 2
  store i16 %41, ptr %42, align 2, !tbaa !8
  %43 = load i16, ptr %10, align 2, !tbaa !8
  %44 = zext i16 %43 to i32
  %45 = add nsw i32 %29, %44
  %46 = tail call i32 @llvm.smax.i32(i32 %45, i32 0)
  %47 = tail call i32 @llvm.umin.i32(i32 %46, i32 4095)
  %48 = trunc nuw nsw i32 %47 to i16
  %49 = getelementptr inbounds nuw i8, ptr %.0106, i64 4
  store i16 %48, ptr %49, align 2, !tbaa !8
  %50 = load i16, ptr %11, align 2, !tbaa !8
  %51 = zext i16 %50 to i32
  %52 = add nsw i32 %29, %51
  %53 = tail call i32 @llvm.smax.i32(i32 %52, i32 0)
  %54 = tail call i32 @llvm.umin.i32(i32 %53, i32 4095)
  %55 = trunc nuw nsw i32 %54 to i16
  %56 = getelementptr inbounds nuw i8, ptr %.0106, i64 6
  store i16 %55, ptr %56, align 2, !tbaa !8
  %57 = load i16, ptr %12, align 2, !tbaa !8
  %58 = zext i16 %57 to i32
  %59 = add nsw i32 %29, %58
  %60 = tail call i32 @llvm.smax.i32(i32 %59, i32 0)
  %61 = tail call i32 @llvm.umin.i32(i32 %60, i32 4095)
  %62 = trunc nuw nsw i32 %61 to i16
  %63 = getelementptr inbounds nuw i8, ptr %.0106, i64 8
  store i16 %62, ptr %63, align 2, !tbaa !8
  %64 = load i16, ptr %13, align 2, !tbaa !8
  %65 = zext i16 %64 to i32
  %66 = add nsw i32 %29, %65
  %67 = tail call i32 @llvm.smax.i32(i32 %66, i32 0)
  %68 = tail call i32 @llvm.umin.i32(i32 %67, i32 4095)
  %69 = trunc nuw nsw i32 %68 to i16
  %70 = getelementptr inbounds nuw i8, ptr %.0106, i64 10
  store i16 %69, ptr %70, align 2, !tbaa !8
  %71 = load i16, ptr %14, align 2, !tbaa !8
  %72 = zext i16 %71 to i32
  %73 = add nsw i32 %29, %72
  %74 = tail call i32 @llvm.smax.i32(i32 %73, i32 0)
  %75 = tail call i32 @llvm.umin.i32(i32 %74, i32 4095)
  %76 = trunc nuw nsw i32 %75 to i16
  %77 = getelementptr inbounds nuw i8, ptr %.0106, i64 12
  store i16 %76, ptr %77, align 2, !tbaa !8
  %78 = load i16, ptr %15, align 2, !tbaa !8
  %79 = zext i16 %78 to i32
  %80 = add nsw i32 %29, %79
  %81 = tail call i32 @llvm.smax.i32(i32 %80, i32 0)
  %82 = tail call i32 @llvm.umin.i32(i32 %81, i32 4095)
  %83 = trunc nuw nsw i32 %82 to i16
  %84 = getelementptr inbounds nuw i8, ptr %.0106, i64 14
  store i16 %83, ptr %84, align 2, !tbaa !8
  %85 = load i16, ptr %16, align 2, !tbaa !8
  %86 = zext i16 %85 to i32
  %87 = add nsw i32 %29, %86
  %88 = tail call i32 @llvm.smax.i32(i32 %87, i32 0)
  %89 = tail call i32 @llvm.umin.i32(i32 %88, i32 4095)
  %90 = trunc nuw nsw i32 %89 to i16
  %91 = getelementptr inbounds nuw i8, ptr %.0106, i64 16
  store i16 %90, ptr %91, align 2, !tbaa !8
  %92 = load i16, ptr %17, align 2, !tbaa !8
  %93 = zext i16 %92 to i32
  %94 = add nsw i32 %29, %93
  %95 = tail call i32 @llvm.smax.i32(i32 %94, i32 0)
  %96 = tail call i32 @llvm.umin.i32(i32 %95, i32 4095)
  %97 = trunc nuw nsw i32 %96 to i16
  %98 = getelementptr inbounds nuw i8, ptr %.0106, i64 18
  store i16 %97, ptr %98, align 2, !tbaa !8
  %99 = load i16, ptr %18, align 2, !tbaa !8
  %100 = zext i16 %99 to i32
  %101 = add nsw i32 %29, %100
  %102 = tail call i32 @llvm.smax.i32(i32 %101, i32 0)
  %103 = tail call i32 @llvm.umin.i32(i32 %102, i32 4095)
  %104 = trunc nuw nsw i32 %103 to i16
  %105 = getelementptr inbounds nuw i8, ptr %.0106, i64 20
  store i16 %104, ptr %105, align 2, !tbaa !8
  %106 = load i16, ptr %19, align 2, !tbaa !8
  %107 = zext i16 %106 to i32
  %108 = add nsw i32 %29, %107
  %109 = tail call i32 @llvm.smax.i32(i32 %108, i32 0)
  %110 = tail call i32 @llvm.umin.i32(i32 %109, i32 4095)
  %111 = trunc nuw nsw i32 %110 to i16
  %112 = getelementptr inbounds nuw i8, ptr %.0106, i64 22
  store i16 %111, ptr %112, align 2, !tbaa !8
  %113 = load i16, ptr %20, align 2, !tbaa !8
  %114 = zext i16 %113 to i32
  %115 = add nsw i32 %29, %114
  %116 = tail call i32 @llvm.smax.i32(i32 %115, i32 0)
  %117 = tail call i32 @llvm.umin.i32(i32 %116, i32 4095)
  %118 = trunc nuw nsw i32 %117 to i16
  %119 = getelementptr inbounds nuw i8, ptr %.0106, i64 24
  store i16 %118, ptr %119, align 2, !tbaa !8
  %120 = load i16, ptr %21, align 2, !tbaa !8
  %121 = zext i16 %120 to i32
  %122 = add nsw i32 %29, %121
  %123 = tail call i32 @llvm.smax.i32(i32 %122, i32 0)
  %124 = tail call i32 @llvm.umin.i32(i32 %123, i32 4095)
  %125 = trunc nuw nsw i32 %124 to i16
  %126 = getelementptr inbounds nuw i8, ptr %.0106, i64 26
  store i16 %125, ptr %126, align 2, !tbaa !8
  %127 = load i16, ptr %22, align 2, !tbaa !8
  %128 = zext i16 %127 to i32
  %129 = add nsw i32 %29, %128
  %130 = tail call i32 @llvm.smax.i32(i32 %129, i32 0)
  %131 = tail call i32 @llvm.umin.i32(i32 %130, i32 4095)
  %132 = trunc nuw nsw i32 %131 to i16
  %133 = getelementptr inbounds nuw i8, ptr %.0106, i64 28
  store i16 %132, ptr %133, align 2, !tbaa !8
  %134 = load i16, ptr %23, align 2, !tbaa !8
  %135 = zext i16 %134 to i32
  %136 = add nsw i32 %29, %135
  %137 = tail call i32 @llvm.smax.i32(i32 %136, i32 0)
  %138 = tail call i32 @llvm.umin.i32(i32 %137, i32 4095)
  %139 = trunc nuw nsw i32 %138 to i16
  %140 = getelementptr inbounds nuw i8, ptr %.0106, i64 30
  store i16 %139, ptr %140, align 2, !tbaa !8
  %141 = getelementptr inbounds nuw i16, ptr %.0106, i64 %8
  %indvars.iv.next = add nuw nsw i64 %indvars.iv, 1
  %exitcond.not = icmp eq i64 %indvars.iv.next, 16
  br i1 %exitcond.not, label %142, label %24, !llvm.loop !17

142:                                              ; preds = %24
  ret void
}